; Function Attrs: mustprogress nofree norecurse nosync nounwind memory(readwrite, inaccessiblemem: none) uwtable
define dso_local { ptr, ptr } @_ZN5clang11DeclContext14BuildDeclChainEN4llvm8ArrayRefIPNS_4DeclEEEb(ptr readonly %0, i64 %1, i1 noundef zeroext %2) local_unnamed_addr #16 align 2 {
  %4 = getelementptr inbounds ptr, ptr %0, i64 %1
  %.not18 = icmp eq i64 %1, 0
  br i1 %.not18, label %._crit_edge, label %.lr.ph

.lr.ph:                                           ; preds = %3
  br i1 %2, label %.lr.ph.split.us, label %.lr.ph.split

.lr.ph.split.us:                                  ; preds = %.lr.ph, %17
  %.021.us = phi ptr [ %18, %17 ], [ %0, %.lr.ph ]
  %.01520.us = phi ptr [ %.1.us, %17 ], [ null, %.lr.ph ]
  %.01619.us = phi ptr [ %.117.us, %17 ], [ null, %.lr.ph ]
  %5 = load ptr, ptr %.021.us, align 8
  %6 = getelementptr inbounds nuw i8, ptr %5, i64 28
  %7 = load i32, ptr %6, align 4
  %8 = and i32 %7, 127
  %9 = add nsw i32 %8, -46
  %10 = icmp ult i32 %9, 3
  br i1 %10, label %17, label %11

11:                                               ; preds = %.lr.ph.split.us
  %.not7.us = icmp eq ptr %.01619.us, null
  br i1 %.not7.us, label %17, label %12

12:                                               ; preds = %11
  %13 = getelementptr inbounds nuw i8, ptr %.01619.us, i64 8
  %.0.copyload.i.i.i.us = load i64, ptr %13, align 8
  %14 = ptrtoint ptr %5 to i64
  %15 = and i64 %.0.copyload.i.i.i.us, 7
  %16 = or i64 %15, %14
  store i64 %16, ptr %13, align 8
  br label %17

17:                                               ; preds = %12, %11, %.lr.ph.split.us
  %.117.us = phi ptr [ %.01619.us, %.lr.ph.split.us ], [ %5, %11 ], [ %5, %12 ]
  %.1.us = phi ptr [ %.01520.us, %.lr.ph.split.us ], [ %5, %11 ], [ %.01520.us, %12 ]
  %18 = getelementptr inbounds i8, ptr %.021.us, i64 8
  %.not.us = icmp eq ptr %18, %4
  br i1 %.not.us, label %._crit_edge, label %.lr.ph.split.us

.lr.ph.split:                                     ; preds = %.lr.ph, %25
  %.021 = phi ptr [ %26, %25 ], [ %0, %.lr.ph ]
  %.01520 = phi ptr [ %.1, %25 ], [ null, %.lr.ph ]
  %.01619 = phi ptr [ %19, %25 ], [ null, %.lr.ph ]
  %19 = load ptr, ptr %.021, align 8
  %.not7 = icmp eq ptr %.01619, null
  br i1 %.not7, label %25, label %20

20:                                               ; preds = %.lr.ph.split
  %21 = getelementptr inbounds nuw i8, ptr %.01619, i64 8
  %.0.copyload.i.i.i = load i64, ptr %21, align 8
  %22 = ptrtoint ptr %19 to i64
  %23 = and i64 %.0.copyload.i.i.i, 7
  %24 = or i64 %23, %22
  store i64 %24, ptr %21, align 8
  br label %25

25:                                               ; preds = %20, %.lr.ph.split
  %.1 = phi ptr [ %19, %.lr.ph.split ], [ %.01520, %20 ]
  %26 = getelementptr inbounds i8, ptr %.021, i64 8
  %.not = icmp eq ptr %26, %4
  br i1 %.not, label %._crit_edge, label %.lr.ph.split

._crit_edge:                                      ; preds = %25, %17, %3
  %.016.lcssa = phi ptr [ null, %3 ], [ %.117.us, %17 ], [ %19, %25 ]
  %.015.lcssa = phi ptr [ null, %3 ], [ %.1.us, %17 ], [ %.1, %25 ]
  %.fca.0.insert.i = insertvalue { ptr, ptr } poison, ptr %.015.lcssa, 0
  %.fca.1.insert.i = insertvalue { ptr, ptr } %.fca.0.insert.i, ptr %.016.lcssa, 1
  ret { ptr, ptr } %.fca.1.insert.i
}